	.file	"driver.c"
	.text
	.section	.rodata
.LC0:
	.string	"Original string:   %s\n"
.LC1:
	.string	"Upper case string: %s\n"
	.text
	.globl	main
	.type	main, @function
main:
.LFB0:
	.cfi_startproc
	endbr64
	pushq	%rbp
	.cfi_def_cfa_offset 16
	.cfi_offset 6, -16
	movq	%rsp, %rbp
	.cfi_def_cfa_register 6
	subq	$32, %rsp
	movq	%fs:40, %rax
	movq	%rax, -8(%rbp)
	xorl	%eax, %eax
	leaq	-32(%rbp), %rax
	movabsq	$7575111976332850019, %rdx
	movabsq	$7885648352178675827, %rcx
	movq	%rdx, (%rax)
	movq	%rcx, 8(%rax)
	movw	$8549, 16(%rax)
	movb	$0, 18(%rax)
	leaq	-32(%rbp), %rax
	movq	%rax, %rsi
	leaq	.LC0(%rip), %rdi
	movl	$0, %eax
	call	printf@PLT
	leaq	-32(%rbp), %rax
	movq	%rax, %rdi
	call	To_Upper
	movl	$10, %edi
	call	putchar@PLT
	leaq	-32(%rbp), %rax
	movq	%rax, %rsi
	leaq	.LC1(%rip), %rdi
	movl	$0, %eax
	call	printf@PLT
	movl	$0, %eax
	movq	-8(%rbp), %rdx
	xorq	%fs:40, %rdx
	je	.L3
	call	__stack_chk_fail@PLT
.L3:
	leave
	.cfi_def_cfa 7, 8
	ret
	.cfi_endproc
.LFE0:
	.size	main, .-main
	.globl	To_Upper
	.type	To_Upper, @function
To_Upper:
.LFB1:
	.cfi_startproc
	endbr64
	pushq	%rbp
	.cfi_def_cfa_offset 16
	.cfi_offset 6, -16
	movq	%rsp, %rbp
	.cfi_def_cfa_register 6
	movq	%rdi, -24(%rbp)
	movl	$0, -4(%rbp)
	jmp	.L5
.L7:
	cmpb	$97, -5(%rbp)
	jle	.L6
	cmpb	$121, -5(%rbp)
	jg	.L6
	movl	-4(%rbp), %eax
	movslq	%eax, %rdx
	movq	-24(%rbp), %rax
	addq	%rdx, %rax
	movzbl	(%rax), %eax
	leal	-32(%rax), %ecx
	movl	-4(%rbp), %eax
	movslq	%eax, %rdx
	movq	-24(%rbp), %rax
	addq	%rdx, %rax
	movl	%ecx, %edx
	movb	%dl, (%rax)
.L6:
	addl	$1, -4(%rbp)
.L5:
	movl	-4(%rbp), %eax
	movslq	%eax, %rdx
	movq	-24(%rbp), %rax
	addq	%rdx, %rax
	movzbl	(%rax), %eax
	movb	%al, -5(%rbp)
	cmpb	$0, -5(%rbp)
	jne	.L7
	nop
	nop
	popq	%rbp
	.cfi_def_cfa 7, 8
	ret
	.cfi_endproc
.LFE1:
	.size	To_Upper, .-To_Upper
	.ident	"GCC: (Ubuntu 9.4.0-1ubuntu1~20.04.1) 9.4.0"
	.section	.note.GNU-stack,"",@progbits
	.section	.note.gnu.property,"a"
	.align 8
	.long	 1f - 0f
	.long	 4f - 1f
	.long	 5
0:
	.string	 "GNU"
1:
	.align 8
	.long	 0xc0000002
	.long	 3f - 2f
2:
	.long	 0x3
3:
	.align 8
4:
